target datalayout = "e-m:e-p270:32:32-p271:32:32-p272:64:64-i64:64-i128:128-f80:128-n8:16:32:64-S128"
target triple = "x86_64-pc-linux-gnu"

%struct.reassembly_table = type { ptr, ptr, ptr, ptr, ptr }
%struct.rdmapinfo = type { i8, i8, i8, %union.anon, ptr }
%union.anon = type { %struct.anon }
%struct.anon = type { i32, i64 }
%struct._packet_info = type { ptr, ptr, i32, i32, %struct.nstime_t, %struct.nstime_t, %struct.nstime_t, i8, ptr, ptr, ptr, ptr, %struct._address, %struct._address, %struct._address, %struct._address, %struct._address, %struct._address, i32, ptr, i8, [3 x i8], %struct.anon.1, i32, i32, i32, i32, ptr, i8, ptr, ptr, i16, i16, i32, i32, i16, i32, i32, ptr, ptr, ptr, i8, i8, i16, i16, i16, i32, i16, i16, ptr, ptr, ptr, ptr, ptr, i32, i32 }
%struct.nstime_t = type { i64, i32 }
%struct._address = type { i32, i32, ptr, ptr }
%struct.anon.1 = type { i8, [3 x i8] }
%struct._frame_data = type <{ i32, i32, i32, i32, i32, [4 x i8], i64, ptr, ptr, ptr, i8, i16, [5 x i8], %struct.nstime_t, %struct.nstime_t, i32, i32 }>
%struct.conversation = type { ptr, ptr, ptr, i32, i32, i32, ptr, ptr, i32, ptr }

@proto_iwarp_ddp_rdmap = internal global i32 0, align 4
@rdmap_heur_subdissector_list = internal global ptr null, align 8
@iwarp_rdma_send_reassemble = internal global i8 1, align 1
@iwarp_rdma_send_reassembly_table = internal global %struct.reassembly_table zeroinitializer, align 8
@.str.221 = private unnamed_addr constant [28 x i8] c"Reassembled iWarp RDMA Send\00", align 1

; Function Attrs: null_pointer_is_valid sspstrong uwtable
define internal void @dissect_rdmap_payload(ptr noundef %0, ptr noundef %1, ptr noundef %2, ptr noundef %3) #0 {
  %5 = alloca ptr, align 8
  %6 = alloca ptr, align 8
  %7 = alloca ptr, align 8
  %8 = alloca ptr, align 8
  %9 = alloca i8, align 1
  %10 = alloca i32, align 4
  %11 = alloca ptr, align 8
  %12 = alloca ptr, align 8
  %13 = alloca i8, align 1
  %14 = alloca i8, align 1
  %15 = alloca ptr, align 8
  store ptr %0, ptr %5, align 8
  store ptr %1, ptr %6, align 8
  store ptr %2, ptr %7, align 8
  store ptr %3, ptr %8, align 8
  call void @llvm.lifetime.start.p0(i64 1, ptr %9) #5
  %16 = load ptr, ptr %6, align 8
  %17 = getelementptr inbounds nuw %struct._packet_info, ptr %16, i32 0, i32 20
  %18 = load i8, ptr %17, align 8, !range !6, !noundef !7
  %19 = trunc i8 %18 to i1
  %20 = zext i1 %19 to i8
  store i8 %20, ptr %9, align 1
  call void @llvm.lifetime.start.p0(i64 4, ptr %10) #5
  %21 = load ptr, ptr %6, align 8
  %22 = getelementptr inbounds nuw %struct._packet_info, ptr %21, i32 0, i32 8
  %23 = load ptr, ptr %22, align 8
  %24 = getelementptr inbounds nuw %struct._frame_data, ptr %23, i32 0, i32 11
  %25 = load i16, ptr %24, align 1
  %26 = lshr i16 %25, 3
  %27 = and i16 %26, 1
  %28 = zext i16 %27 to i32
  store i32 %28, ptr %10, align 4
  call void @llvm.lifetime.start.p0(i64 8, ptr %11) #5
  store ptr null, ptr %11, align 8
  call void @llvm.lifetime.start.p0(i64 8, ptr %12) #5
  store ptr null, ptr %12, align 8
  call void @llvm.lifetime.start.p0(i64 1, ptr %13) #5
  store i8 0, ptr %13, align 1
  call void @llvm.lifetime.start.p0(i64 1, ptr %14) #5
  store i8 0, ptr %14, align 1
  call void @llvm.lifetime.start.p0(i64 8, ptr %15) #5
  %29 = load ptr, ptr %8, align 8
  %30 = getelementptr inbounds nuw %struct.rdmapinfo, ptr %29, i32 0, i32 0
  %31 = load i8, ptr %30, align 8
  %32 = zext i8 %31 to i32
  switch i32 %32, label %38 [
    i32 3, label %33
    i32 4, label %33
    i32 5, label %33
    i32 6, label %33
  ]

33:                                               ; preds = %4, %4, %4, %4
  %34 = load i8, ptr @iwarp_rdma_send_reassemble, align 1, !range !6, !noundef !7
  %35 = trunc i8 %34 to i1
  br i1 %35, label %36, label %37

36:                                               ; preds = %33
  br label %39

37:                                               ; preds = %33
  br label %38

38:                                               ; preds = %4, %37
  br label %103

39:                                               ; preds = %36
  %40 = load ptr, ptr %6, align 8
  %41 = call ptr @find_or_create_conversation(ptr noundef %40)
  store ptr %41, ptr %11, align 8
  %42 = load ptr, ptr %8, align 8
  %43 = getelementptr inbounds nuw %struct.rdmapinfo, ptr %42, i32 0, i32 1
  %44 = load i8, ptr %43, align 1, !range !6, !noundef !7
  %45 = trunc i8 %44 to i1
  br i1 %45, label %47, label %46

46:                                               ; preds = %39
  store i8 1, ptr %13, align 1
  br label %47

47:                                               ; preds = %46, %39
  %48 = call ptr @wmem_file_scope()
  %49 = load ptr, ptr %6, align 8
  %50 = load i32, ptr @proto_iwarp_ddp_rdmap, align 4
  %51 = call ptr @p_get_proto_data(ptr noundef %48, ptr noundef %49, i32 noundef %50, i32 noundef 0)
  store ptr %51, ptr %12, align 8
  %52 = load ptr, ptr %12, align 8
  %53 = icmp eq ptr %52, null
  br i1 %53, label %54, label %72

54:                                               ; preds = %47
  store i8 1, ptr %14, align 1
  %55 = load ptr, ptr %6, align 8
  %56 = getelementptr inbounds nuw %struct._packet_info, ptr %55, i32 0, i32 8
  %57 = load ptr, ptr %56, align 8
  %58 = getelementptr inbounds nuw %struct._frame_data, ptr %57, i32 0, i32 11
  %59 = load i16, ptr %58, align 1
  %60 = and i16 %59, -9
  %61 = or i16 %60, 0
  store i16 %61, ptr %58, align 1
  %62 = load ptr, ptr %5, align 8
  %63 = load ptr, ptr %6, align 8
  %64 = load ptr, ptr %11, align 8
  %65 = getelementptr inbounds nuw %struct.conversation, ptr %64, i32 0, i32 3
  %66 = load i32, ptr %65, align 8
  %67 = load ptr, ptr %5, align 8
  %68 = call i32 @tvb_captured_length(ptr noundef %67)
  %69 = load i8, ptr %13, align 1, !range !6, !noundef !7
  %70 = trunc i8 %69 to i1
  %71 = call ptr @fragment_add_seq_next(ptr noundef @iwarp_rdma_send_reassembly_table, ptr noundef %62, i32 noundef 0, ptr noundef %63, i32 noundef %66, ptr noundef null, i32 noundef %68, i1 noundef zeroext %70)
  store ptr %71, ptr %12, align 8
  br label %72

72:                                               ; preds = %54, %47
  %73 = load ptr, ptr %12, align 8
  %74 = icmp eq ptr %73, null
  br i1 %74, label %75, label %81

75:                                               ; preds = %72
  %76 = load ptr, ptr %6, align 8
  %77 = load ptr, ptr %11, align 8
  %78 = getelementptr inbounds nuw %struct.conversation, ptr %77, i32 0, i32 3
  %79 = load i32, ptr %78, align 8
  %80 = call ptr @fragment_get_reassembled_id(ptr noundef @iwarp_rdma_send_reassembly_table, ptr noundef %76, i32 noundef %79)
  store ptr %80, ptr %12, align 8
  br label %81

81:                                               ; preds = %75, %72
  %82 = load ptr, ptr %12, align 8
  %83 = icmp eq ptr %82, null
  br i1 %83, label %84, label %85

84:                                               ; preds = %81
  br label %118

85:                                               ; preds = %81
  %86 = load i8, ptr %14, align 1, !range !6, !noundef !7
  %87 = trunc i8 %86 to i1
  br i1 %87, label %88, label %93

88:                                               ; preds = %85
  %89 = call ptr @wmem_file_scope()
  %90 = load ptr, ptr %6, align 8
  %91 = load i32, ptr @proto_iwarp_ddp_rdmap, align 4
  %92 = load ptr, ptr %12, align 8
  call void @p_add_proto_data(ptr noundef %89, ptr noundef %90, i32 noundef %91, i32 noundef 0, ptr noundef %92)
  br label %93

93:                                               ; preds = %88, %85
  %94 = load ptr, ptr %5, align 8
  %95 = load ptr, ptr %6, align 8
  %96 = load ptr, ptr %12, align 8
  %97 = load ptr, ptr %7, align 8
  %98 = call ptr @process_reassembled_data(ptr noundef %94, i32 noundef 0, ptr noundef %95, ptr noundef @.str.221, ptr noundef %96, ptr noundef @iwarp_rdma_send_frag_items, ptr noundef null, ptr noundef %97)
  store ptr %98, ptr %5, align 8
  %99 = load ptr, ptr %5, align 8
  %100 = icmp eq ptr %99, null
  br i1 %100, label %101, label %102

101:                                              ; preds = %93
  br label %118

102:                                              ; preds = %93
  br label %103

103:                                              ; preds = %102, %38
  %104 = load ptr, ptr %6, align 8
  %105 = getelementptr inbounds nuw %struct._packet_info, ptr %104, i32 0, i32 20
  store i8 0, ptr %105, align 8
  %106 = load ptr, ptr @rdmap_heur_subdissector_list, align 8
  %107 = load ptr, ptr %5, align 8
  %108 = load ptr, ptr %6, align 8
  %109 = load ptr, ptr %7, align 8
  %110 = load ptr, ptr %8, align 8
  %111 = call zeroext i1 @dissector_try_heuristic(ptr noundef %106, ptr noundef %107, ptr noundef %108, ptr noundef %109, ptr noundef %15, ptr noundef %110)
  br i1 %111, label %117, label %112

112:                                              ; preds = %103
  %113 = load ptr, ptr %5, align 8
  %114 = load ptr, ptr %6, align 8
  %115 = load ptr, ptr %7, align 8
  %116 = call i32 @call_data_dissector(ptr noundef %113, ptr noundef %114, ptr noundef %115)
  br label %117

117:                                              ; preds = %112, %103
  br label %118

118:                                              ; preds = %117, %101, %84
  %119 = load i8, ptr %9, align 1, !range !6, !noundef !7
  %120 = trunc i8 %119 to i1
  %121 = load ptr, ptr %6, align 8
  %122 = getelementptr inbounds nuw %struct._packet_info, ptr %121, i32 0, i32 20
  %123 = zext i1 %120 to i8
  store i8 %123, ptr %122, align 8
  %124 = load i32, ptr %10, align 4
  %125 = load ptr, ptr %6, align 8
  %126 = getelementptr inbounds nuw %struct._packet_info, ptr %125, i32 0, i32 8
  %127 = load ptr, ptr %126, align 8
  %128 = getelementptr inbounds nuw %struct._frame_data, ptr %127, i32 0, i32 11
  %129 = trunc i32 %124 to i16
  %130 = load i16, ptr %128, align 1
  %131 = and i16 %129, 1
  %132 = shl i16 %131, 3
  %133 = and i16 %130, -9
  %134 = or i16 %133, %132
  store i16 %134, ptr %128, align 1
  call void @llvm.lifetime.end.p0(i64 8, ptr %15) #5
  call void @llvm.lifetime.end.p0(i64 1, ptr %14) #5
  call void @llvm.lifetime.end.p0(i64 1, ptr %13) #5
  call void @llvm.lifetime.end.p0(i64 8, ptr %12) #5
  call void @llvm.lifetime.end.p0(i64 8, ptr %11) #5
  call void @llvm.lifetime.end.p0(i64 4, ptr %10) #5
  call void @llvm.lifetime.end.p0(i64 1, ptr %9) #5
  ret void
}