; Function Attrs: null_pointer_is_valid sspstrong uwtable
define internal fastcc void @dissect_rdmap_payload(ptr noundef %0, ptr noundef %1, ptr noundef %2, ptr noundef %3) unnamed_addr #0 {
  %5 = alloca ptr, align 8
  %6 = getelementptr inbounds nuw i8, ptr %1, i64 272
  %7 = load i8, ptr %6, align 8, !range !6, !noundef !7
  %8 = getelementptr inbounds nuw i8, ptr %1, i64 80
  %9 = load ptr, ptr %8, align 8
  %10 = getelementptr inbounds nuw i8, ptr %9, i64 57
  %11 = load i16, ptr %10, align 1
  call void @llvm.lifetime.start.p0(i64 8, ptr nonnull %5) #5
  %12 = load i8, ptr %3, align 8
  %.off = add i8 %12, -3
  %switch = icmp ult i8 %.off, 4
  br i1 %switch, label %13, label %44

13:                                               ; preds = %4
  %14 = load i8, ptr @iwarp_rdma_send_reassemble, align 1, !range !6, !noundef !7
  %15 = trunc nuw i8 %14 to i1
  br i1 %15, label %16, label %44

16:                                               ; preds = %13
  %17 = tail call ptr @find_or_create_conversation(ptr noundef %1)
  %18 = getelementptr inbounds nuw i8, ptr %3, i64 1
  %19 = load i8, ptr %18, align 1, !range !6, !noundef !7
  %20 = tail call ptr @wmem_file_scope()
  %21 = load i32, ptr @proto_iwarp_ddp_rdmap, align 4
  %22 = tail call ptr @p_get_proto_data(ptr noundef %20, ptr noundef %1, i32 noundef %21, i32 noundef 0)
  %23 = icmp eq ptr %22, null
  br i1 %23, label %24, label %41

24:                                               ; preds = %16
  %25 = trunc nuw i8 %19 to i1
  %.036 = xor i1 %25, true
  %26 = load ptr, ptr %8, align 8
  %27 = getelementptr inbounds nuw i8, ptr %26, i64 57
  %28 = load i16, ptr %27, align 1
  %29 = and i16 %28, -9
  store i16 %29, ptr %27, align 1
  %30 = getelementptr inbounds nuw i8, ptr %17, i64 24
  %31 = load i32, ptr %30, align 8
  %32 = tail call i32 @tvb_captured_length(ptr noundef %0)
  %33 = tail call ptr @fragment_add_seq_next(ptr noundef nonnull @iwarp_rdma_send_reassembly_table, ptr noundef %0, i32 noundef 0, ptr noundef %1, i32 noundef %31, ptr noundef null, i32 noundef %32, i1 noundef zeroext %.036)
  %34 = icmp eq ptr %33, null
  br i1 %34, label %35, label %.thread49

35:                                               ; preds = %24
  %36 = load i32, ptr %30, align 8
  %37 = tail call ptr @fragment_get_reassembled_id(ptr noundef nonnull @iwarp_rdma_send_reassembly_table, ptr noundef %1, i32 noundef %36)
  %38 = icmp eq ptr %37, null
  br i1 %38, label %49, label %.thread49

.thread49:                                        ; preds = %35, %24
  %.14448 = phi ptr [ %33, %24 ], [ %37, %35 ]
  %39 = tail call ptr @wmem_file_scope()
  %40 = load i32, ptr @proto_iwarp_ddp_rdmap, align 4
  tail call void @p_add_proto_data(ptr noundef %39, ptr noundef %1, i32 noundef %40, i32 noundef 0, ptr noundef nonnull %.14448)
  br label %41

41:                                               ; preds = %16, %.thread49
  %.14447 = phi ptr [ %.14448, %.thread49 ], [ %22, %16 ]
  %42 = tail call ptr @process_reassembled_data(ptr noundef %0, i32 noundef 0, ptr noundef %1, ptr noundef nonnull @.str.221, ptr noundef nonnull %.14447, ptr noundef nonnull @iwarp_rdma_send_frag_items, ptr noundef null, ptr noundef %2)
  %43 = icmp eq ptr %42, null
  br i1 %43, label %49, label %44

44:                                               ; preds = %4, %41, %13
  %.038 = phi ptr [ %0, %4 ], [ %42, %41 ], [ %0, %13 ]
  store i8 0, ptr %6, align 8
  %45 = load ptr, ptr @rdmap_heur_subdissector_list, align 8
  %46 = call zeroext i1 @dissector_try_heuristic(ptr noundef %45, ptr noundef %.038, ptr noundef %1, ptr noundef %2, ptr noundef nonnull %5, ptr noundef %3)
  br i1 %46, label %49, label %47

47:                                               ; preds = %44
  %48 = call i32 @call_data_dissector(ptr noundef %.038, ptr noundef %1, ptr noundef %2)
  br label %49

49:                                               ; preds = %44, %47, %41, %35
  %50 = and i16 %11, 8
  store i8 %7, ptr %6, align 8
  %51 = load ptr, ptr %8, align 8
  %52 = getelementptr inbounds nuw i8, ptr %51, i64 57
  %53 = load i16, ptr %52, align 1
  %54 = and i16 %53, -9
  %55 = or disjoint i16 %54, %50
  store i16 %55, ptr %52, align 1
  call void @llvm.lifetime.end.p0(i64 8, ptr nonnull %5) #5
  ret void
}